target datalayout = "e-m:e-p270:32:32-p271:32:32-p272:64:64-i64:64-i128:128-f80:128-n8:16:32:64-S128"
target triple = "x86_64-pc-linux-gnu"

%struct._zend_ini_scanner_globals = type { ptr, ptr, i32, ptr, ptr, ptr, ptr, ptr, i32, %struct._zend_stack, ptr, i32, i32 }
%struct._zend_stack = type { i32, i32, i32, ptr }
%struct._zend_refcounted_h = type { i32, %union.anon }
%union.anon = type { i32 }
%struct._zend_file_handle = type { %union.anon.7, ptr, ptr, i8, i8, i8, ptr, i64 }
%union.anon.7 = type { %struct._zend_stream }
%struct._zend_stream = type { ptr, i32, ptr, ptr, ptr }

@ini_scanner_globals = global %struct._zend_ini_scanner_globals zeroinitializer, align 8
@.str.11 = private unnamed_addr constant [21 x i8] c"Invalid scanner mode\00", align 1

; Function Attrs: nounwind uwtable
define internal void @yy_scan_buffer(ptr noundef %0, i32 noundef %1) #0 {
  %3 = alloca ptr, align 8
  %4 = alloca i32, align 4
  store ptr %0, ptr %3, align 8
  store i32 %1, ptr %4, align 4
  %5 = load ptr, ptr %3, align 8
  store ptr %5, ptr getelementptr inbounds (%struct._zend_ini_scanner_globals, ptr @ini_scanner_globals, i32 0, i32 5), align 8
  %6 = load ptr, ptr getelementptr inbounds (%struct._zend_ini_scanner_globals, ptr @ini_scanner_globals, i32 0, i32 5), align 8
  store ptr %6, ptr getelementptr inbounds (%struct._zend_ini_scanner_globals, ptr @ini_scanner_globals, i32 0, i32 3), align 8
  %7 = load ptr, ptr getelementptr inbounds (%struct._zend_ini_scanner_globals, ptr @ini_scanner_globals, i32 0, i32 5), align 8
  %8 = load i32, ptr %4, align 4
  %9 = zext i32 %8 to i64
  %10 = getelementptr inbounds i8, ptr %7, i64 %9
  store ptr %10, ptr getelementptr inbounds (%struct._zend_ini_scanner_globals, ptr @ini_scanner_globals, i32 0, i32 7), align 8
  ret void
}

; Function Attrs: nounwind uwtable
define internal i32 @init_ini_scanner(i32 noundef %0, ptr noundef %1) #0 {
  %3 = alloca ptr, align 8
  %4 = alloca i32, align 4
  %5 = alloca ptr, align 8
  %6 = alloca i32, align 4
  %7 = alloca i32, align 4
  %8 = alloca ptr, align 8
  store i32 %0, ptr %7, align 4
  store ptr %1, ptr %8, align 8
  %9 = load i32, ptr %7, align 4
  %10 = icmp ne i32 %9, 0
  br i1 %10, label %11, label %18

11:                                               ; preds = %2
  %12 = load i32, ptr %7, align 4
  %13 = icmp ne i32 %12, 1
  br i1 %13, label %14, label %18

14:                                               ; preds = %11
  %15 = load i32, ptr %7, align 4
  %16 = icmp ne i32 %15, 2
  br i1 %16, label %17, label %18

17:                                               ; preds = %14
  call void (i32, ptr, ...) @zend_error(i32 noundef 2, ptr noundef @.str.11)
  store i32 -1, ptr %6, align 4
  br label %43

18:                                               ; preds = %14, %11, %2
  store i32 1, ptr getelementptr inbounds (%struct._zend_ini_scanner_globals, ptr @ini_scanner_globals, i32 0, i32 11), align 8
  %19 = load i32, ptr %7, align 4
  store i32 %19, ptr getelementptr inbounds (%struct._zend_ini_scanner_globals, ptr @ini_scanner_globals, i32 0, i32 12), align 4
  %20 = load ptr, ptr %8, align 8
  store ptr %20, ptr @ini_scanner_globals, align 8
  %21 = load ptr, ptr %8, align 8
  %22 = icmp ne ptr %21, null
  br i1 %22, label %23, label %41

23:                                               ; preds = %18
  %24 = load ptr, ptr %8, align 8
  %25 = getelementptr inbounds %struct._zend_file_handle, ptr %24, i32 0, i32 1
  %26 = load ptr, ptr %25, align 8
  store ptr %26, ptr %5, align 8
  %27 = load ptr, ptr %5, align 8
  %28 = getelementptr inbounds %struct._zend_refcounted_h, ptr %27, i32 0, i32 1
  %29 = load i32, ptr %28, align 4
  store i32 %29, ptr %4, align 4
  %30 = load i32, ptr %4, align 4
  %31 = and i32 %30, 1008
  %32 = and i32 %31, 64
  %33 = icmp ne i32 %32, 0
  br i1 %33, label %39, label %34

34:                                               ; preds = %23
  %35 = load ptr, ptr %5, align 8
  store ptr %35, ptr %3, align 8
  %36 = load ptr, ptr %3, align 8
  %37 = load i32, ptr %36, align 4
  %38 = add i32 %37, 1
  store i32 %38, ptr %36, align 4
  br label %39

39:                                               ; preds = %34, %23
  %40 = load ptr, ptr %5, align 8
  store ptr %40, ptr getelementptr inbounds (%struct._zend_ini_scanner_globals, ptr @ini_scanner_globals, i32 0, i32 10), align 8
  br label %42

41:                                               ; preds = %18
  store ptr null, ptr getelementptr inbounds (%struct._zend_ini_scanner_globals, ptr @ini_scanner_globals, i32 0, i32 10), align 8
  br label %42

42:                                               ; preds = %41, %39
  call void @zend_stack_init(ptr noundef getelementptr inbounds (%struct._zend_ini_scanner_globals, ptr @ini_scanner_globals, i32 0, i32 9), i32 noundef 4)
  store i32 0, ptr getelementptr inbounds (%struct._zend_ini_scanner_globals, ptr @ini_scanner_globals, i32 0, i32 8), align 8
  store i32 0, ptr %6, align 4
  br label %43

43:                                               ; preds = %42, %17
  %44 = load i32, ptr %6, align 4
  ret i32 %44
}

; Function Attrs: nounwind uwtable
define hidden i32 @zend_ini_prepare_string_for_scanning(ptr noundef %0, i32 noundef %1) #0 {
  %3 = alloca i32, align 4
  %4 = alloca ptr, align 8
  %5 = alloca i32, align 4
  %6 = alloca i32, align 4
  store ptr %0, ptr %4, align 8
  store i32 %1, ptr %5, align 4
  %7 = load ptr, ptr %4, align 8
  %8 = call i64 @strlen(ptr noundef %7) #9
  %9 = trunc i64 %8 to i32
  store i32 %9, ptr %6, align 4
  %10 = load i32, ptr %5, align 4
  %11 = call i32 @init_ini_scanner(i32 noundef %10, ptr noundef null)
  %12 = icmp eq i32 %11, -1
  br i1 %12, label %13, label %14

13:                                               ; preds = %2
  store i32 -1, ptr %3, align 4
  br label %17

14:                                               ; preds = %2
  %15 = load ptr, ptr %4, align 8
  %16 = load i32, ptr %6, align 4
  call void @yy_scan_buffer(ptr noundef %15, i32 noundef %16)
  store i32 0, ptr %3, align 4
  br label %17

17:                                               ; preds = %14, %13
  %18 = load i32, ptr %3, align 4
  ret i32 %18
}