; Function Attrs: nounwind uwtable
define hidden noundef i32 @zend_ini_prepare_string_for_scanning(ptr noundef %0, i32 noundef %1) local_unnamed_addr #0 {
  %or.cond3.i = icmp ugt i32 %1, 2
  br i1 %or.cond3.i, label %init_ini_scanner.exit.thread, label %3

init_ini_scanner.exit.thread:                     ; preds = %2
  tail call void (i32, ptr, ...) @zend_error(i32 noundef 2, ptr noundef nonnull @.str.11) #10
  br label %7

3:                                                ; preds = %2
  %4 = tail call i64 @strlen(ptr noundef nonnull dereferenceable(1) %0) #11
  store i32 1, ptr getelementptr inbounds (%struct._zend_ini_scanner_globals, ptr @ini_scanner_globals, i64 0, i32 11), align 8
  store i32 %1, ptr getelementptr inbounds (%struct._zend_ini_scanner_globals, ptr @ini_scanner_globals, i64 0, i32 12), align 4
  store ptr null, ptr @ini_scanner_globals, align 8
  store ptr null, ptr getelementptr inbounds (%struct._zend_ini_scanner_globals, ptr @ini_scanner_globals, i64 0, i32 10), align 8
  tail call void @zend_stack_init(ptr noundef nonnull getelementptr inbounds (%struct._zend_ini_scanner_globals, ptr @ini_scanner_globals, i64 0, i32 9), i32 noundef 4) #10
  store i32 0, ptr getelementptr inbounds (%struct._zend_ini_scanner_globals, ptr @ini_scanner_globals, i64 0, i32 8), align 8
  store ptr %0, ptr getelementptr inbounds (%struct._zend_ini_scanner_globals, ptr @ini_scanner_globals, i64 0, i32 5), align 8
  store ptr %0, ptr getelementptr inbounds (%struct._zend_ini_scanner_globals, ptr @ini_scanner_globals, i64 0, i32 3), align 8
  %5 = and i64 %4, 4294967295
  %6 = getelementptr inbounds i8, ptr %0, i64 %5
  store ptr %6, ptr getelementptr inbounds (%struct._zend_ini_scanner_globals, ptr @ini_scanner_globals, i64 0, i32 7), align 8
  br label %7

7:                                                ; preds = %init_ini_scanner.exit.thread, %3
  %.0 = phi i32 [ 0, %3 ], [ -1, %init_ini_scanner.exit.thread ]
  ret i32 %.0
}